; Function Attrs: null_pointer_is_valid sspstrong uwtable
define internal fastcc void @decode_GIAS_UpdateMgr_release_lock(ptr noundef %0, ptr noundef %1, ptr noundef %2, ptr noundef %3, ptr noundef %4, ptr noundef readonly captures(none) %5, i1 noundef zeroext %6) unnamed_addr #0 {
  %8 = getelementptr inbounds nuw i8, ptr %5, i64 7
  %9 = load i8, ptr %8, align 1
  switch i8 %9, label %16 [
    i8 0, label %10
    i8 1, label %11
  ]

10:                                               ; preds = %7
  tail call void @get_CDR_object(ptr noundef %0, ptr noundef %1, ptr noundef %2, ptr noundef %4, i1 noundef zeroext %6, i32 noundef 12)
  br label %19

11:                                               ; preds = %7
  %12 = getelementptr inbounds nuw i8, ptr %5, i64 16
  %13 = load i32, ptr %12, align 8
  %switch = icmp ult i32 %13, 2
  br i1 %switch, label %19, label %14

14:                                               ; preds = %11
  %15 = tail call ptr (ptr, ptr, ptr, ptr, ...) @expert_add_info_format(ptr noundef %1, ptr noundef %3, ptr noundef nonnull @ei_gias_unknown_exception, ptr noundef nonnull @.str.826, i32 noundef %13)
  br label %19

16:                                               ; preds = %7
  %17 = zext i8 %9 to i32
  %18 = tail call ptr (ptr, ptr, ptr, ptr, ...) @expert_add_info_format(ptr noundef %1, ptr noundef %3, ptr noundef nonnull @ei_gias_unknown_giop_msg, ptr noundef nonnull @.str.827, i32 noundef %17)
  br label %19

19:                                               ; preds = %11, %14, %16, %10
  ret void
}